; Function Attrs: mustprogress nofree norecurse nosync nounwind willreturn memory(readwrite, inaccessiblemem: none) uwtable
define dso_local void @_ZN12CVQualifiers12set_volatileEbi(ptr nocapture noundef nonnull readonly align 8 dereferenceable(96) %0, i1 noundef zeroext %1, i32 noundef %2) local_unnamed_addr #9 align 2 personality ptr @__gxx_personality_v0 {
  %4 = getelementptr inbounds i8, ptr %0, i64 56
  %5 = getelementptr inbounds i8, ptr %0, i64 72
  %6 = load ptr, ptr %5, align 8
  %7 = getelementptr inbounds i8, ptr %0, i64 80
  %8 = load i32, ptr %7, align 8
  %9 = load ptr, ptr %4, align 8
  %10 = ptrtoint ptr %6 to i64
  %11 = ptrtoint ptr %9 to i64
  %12 = sub i64 %10, %11
  %.tr = trunc i64 %12 to i32
  %13 = shl i32 %.tr, 3
  %14 = add i32 %13, %8
  %15 = icmp sgt i32 %14, 0
  br i1 %15, label %16, label %_ZNSt14_Bit_referenceaSEb.exit

16:                                               ; preds = %3
  %17 = xor i32 %2, -1
  %18 = add i32 %14, %17
  %19 = sext i32 %18 to i64
  %20 = sdiv i32 %18, 64
  %.sext = sext i32 %20 to i64
  %21 = getelementptr inbounds i64, ptr %9, i64 %.sext
  %22 = and i64 %19, -9223372036854775745
  %23 = icmp ugt i64 %22, -9223372036854775808
  %storemerge.idx.i.i.i.i.i = select i1 %23, i64 -8, i64 0
  %storemerge.i.i.i.i.i = getelementptr inbounds i8, ptr %21, i64 %storemerge.idx.i.i.i.i.i
  %24 = and i64 %19, 63
  %25 = shl nuw i64 1, %24
  br i1 %1, label %26, label %29

26:                                               ; preds = %16
  %27 = load i64, ptr %storemerge.i.i.i.i.i, align 8
  %28 = or i64 %27, %25
  br label %_ZNSt14_Bit_referenceaSEb.exit.sink.split

29:                                               ; preds = %16
  %30 = xor i64 %25, -1
  %31 = load i64, ptr %storemerge.i.i.i.i.i, align 8
  %32 = and i64 %31, %30
  br label %_ZNSt14_Bit_referenceaSEb.exit.sink.split

_ZNSt14_Bit_referenceaSEb.exit.sink.split:        ; preds = %26, %29
  %.sink = phi i64 [ %32, %29 ], [ %28, %26 ]
  store i64 %.sink, ptr %storemerge.i.i.i.i.i, align 8
  br label %_ZNSt14_Bit_referenceaSEb.exit

_ZNSt14_Bit_referenceaSEb.exit:                   ; preds = %_ZNSt14_Bit_referenceaSEb.exit.sink.split, %3
  ret void
}